; Function Attrs: null_pointer_is_valid sspstrong uwtable
define internal noundef zeroext i1 @header_fields_update_cb(ptr noundef readonly captures(none) %0, ptr noundef writeonly captures(none) initializes((0, 8)) %1) #0 {
  %3 = load ptr, ptr %0, align 8
  %4 = icmp eq ptr %3, null
  br i1 %4, label %5, label %7

5:                                                ; preds = %2
  %6 = tail call noalias ptr @g_strdup(ptr noundef nonnull @.str.1089)
  br label %20

7:                                                ; preds = %2
  %8 = tail call ptr @g_strchug(ptr noundef nonnull %3)
  %9 = tail call ptr @g_strchomp(ptr noundef %8)
  %10 = load ptr, ptr %0, align 8
  %11 = load i8, ptr %10, align 1
  %12 = icmp eq i8 %11, 0
  br i1 %12, label %13, label %15

13:                                               ; preds = %7
  %14 = tail call noalias ptr @g_strdup(ptr noundef nonnull @.str.1089)
  br label %20

15:                                               ; preds = %7
  %16 = tail call zeroext i8 @proto_check_field_name(ptr noundef %10)
  %.not = icmp eq i8 %16, 0
  br i1 %.not, label %20, label %17

17:                                               ; preds = %15
  %18 = sext i8 %16 to i32
  %19 = tail call noalias ptr (ptr, ptr, ...) @wmem_strdup_printf(ptr noundef null, ptr noundef nonnull @.str.1090, i32 noundef %18)
  br label %20

20:                                               ; preds = %15, %17, %13, %5
  %.sink = phi ptr [ %19, %17 ], [ %14, %13 ], [ %6, %5 ], [ null, %15 ]
  %.0 = phi i1 [ false, %17 ], [ false, %13 ], [ false, %5 ], [ true, %15 ]
  store ptr %.sink, ptr %1, align 8
  ret i1 %.0
}